target datalayout = "e-m:e-p270:32:32-p271:32:32-p272:64:64-i64:64-i128:128-f80:128-n8:16:32:64-S128"
target triple = "x86_64-pc-linux-gnu"

%struct.compute_options_size_t = type { i32, ptr }
%struct.custom_opt_s = type { i32, %union.anon.5 }
%union.anon.5 = type { %struct.nflx_custom_opt_data }
%struct.nflx_custom_opt_data = type { i32, i64, ptr, i32 }
%struct.generic_custom_opt_data = type { i64, ptr }

; Function Attrs: nounwind uwtable
define internal i32 @pcapng_compute_custom_option_size(ptr noundef %0) #0 {
  %2 = alloca ptr, align 8
  %3 = alloca i64, align 8
  %4 = alloca i64, align 8
  store ptr %0, ptr %2, align 8
  store i64 4, ptr %3, align 8
  %5 = load ptr, ptr %2, align 8
  %6 = getelementptr inbounds %struct.custom_opt_s, ptr %5, i32 0, i32 0
  %7 = load i32, ptr %6, align 8
  switch i32 %7, label %17 [
    i32 10949, label %8
  ]

8:                                                ; preds = %1
  %9 = load i64, ptr %3, align 8
  %10 = add i64 %9, 4
  store i64 %10, ptr %3, align 8
  %11 = load ptr, ptr %2, align 8
  %12 = getelementptr inbounds %struct.custom_opt_s, ptr %11, i32 0, i32 1
  %13 = getelementptr inbounds %struct.nflx_custom_opt_data, ptr %12, i32 0, i32 1
  %14 = load i64, ptr %13, align 8
  %15 = load i64, ptr %3, align 8
  %16 = add i64 %15, %14
  store i64 %16, ptr %3, align 8
  br label %24

17:                                               ; preds = %1
  %18 = load ptr, ptr %2, align 8
  %19 = getelementptr inbounds %struct.custom_opt_s, ptr %18, i32 0, i32 1
  %20 = getelementptr inbounds %struct.generic_custom_opt_data, ptr %19, i32 0, i32 0
  %21 = load i64, ptr %20, align 8
  %22 = load i64, ptr %3, align 8
  %23 = add i64 %22, %21
  store i64 %23, ptr %3, align 8
  br label %24

24:                                               ; preds = %17, %8
  %25 = load i64, ptr %3, align 8
  %26 = icmp ugt i64 %25, 65535
  br i1 %26, label %27, label %28

27:                                               ; preds = %24
  store i64 65535, ptr %3, align 8
  br label %28

28:                                               ; preds = %27, %24
  %29 = load i64, ptr %3, align 8
  %30 = urem i64 %29, 4
  %31 = icmp ne i64 %30, 0
  br i1 %31, label %32, label %36

32:                                               ; preds = %28
  %33 = load i64, ptr %3, align 8
  %34 = urem i64 %33, 4
  %35 = sub i64 4, %34
  store i64 %35, ptr %4, align 8
  br label %37

36:                                               ; preds = %28
  store i64 0, ptr %4, align 8
  br label %37

37:                                               ; preds = %36, %32
  %38 = load i64, ptr %4, align 8
  %39 = load i64, ptr %3, align 8
  %40 = add i64 %39, %38
  store i64 %40, ptr %3, align 8
  %41 = load i64, ptr %3, align 8
  %42 = trunc i64 %41 to i32
  ret i32 %42
}

; Function Attrs: nounwind uwtable
define internal i32 @pcapng_compute_string_option_size(ptr noundef %0) #0 {
  %2 = alloca ptr, align 8
  %3 = alloca i32, align 4
  %4 = alloca i32, align 4
  store ptr %0, ptr %2, align 8
  store i32 0, ptr %3, align 4
  %5 = load ptr, ptr %2, align 8
  %6 = load ptr, ptr %5, align 8
  %7 = call i64 @strlen(ptr noundef %6) #12
  %8 = trunc i64 %7 to i32
  %9 = and i32 %8, 65535
  store i32 %9, ptr %3, align 4
  %10 = load i32, ptr %3, align 4
  %11 = urem i32 %10, 4
  %12 = icmp ne i32 %11, 0
  br i1 %12, label %13, label %17

13:                                               ; preds = %1
  %14 = load i32, ptr %3, align 4
  %15 = urem i32 %14, 4
  %16 = sub i32 4, %15
  store i32 %16, ptr %4, align 4
  br label %18

17:                                               ; preds = %1
  store i32 0, ptr %4, align 4
  br label %18

18:                                               ; preds = %17, %13
  %19 = load i32, ptr %4, align 4
  %20 = load i32, ptr %3, align 4
  %21 = add i32 %20, %19
  store i32 %21, ptr %3, align 4
  %22 = load i32, ptr %3, align 4
  ret i32 %22
}

; Function Attrs: nounwind uwtable
define internal i32 @compute_block_option_size(ptr noundef %0, i32 noundef %1, i32 noundef %2, ptr noundef %3, ptr noundef %4) #0 {
  %6 = alloca ptr, align 8
  %7 = alloca i32, align 4
  %8 = alloca i32, align 4
  %9 = alloca ptr, align 8
  %10 = alloca ptr, align 8
  %11 = alloca ptr, align 8
  %12 = alloca i32, align 4
  store ptr %0, ptr %6, align 8
  store i32 %1, ptr %7, align 4
  store i32 %2, ptr %8, align 4
  store ptr %3, ptr %9, align 8
  store ptr %4, ptr %10, align 8
  %13 = load ptr, ptr %10, align 8
  store ptr %13, ptr %11, align 8
  store i32 0, ptr %12, align 4
  %14 = load i32, ptr %7, align 4
  switch i32 %14, label %22 [
    i32 1, label %15
    i32 2988, label %18
    i32 2989, label %18
    i32 19372, label %21
    i32 19373, label %21
  ]

15:                                               ; preds = %5
  %16 = load ptr, ptr %9, align 8
  %17 = call i32 @pcapng_compute_string_option_size(ptr noundef %16)
  store i32 %17, ptr %12, align 4
  br label %31

18:                                               ; preds = %5, %5
  %19 = load ptr, ptr %9, align 8
  %20 = call i32 @pcapng_compute_custom_option_size(ptr noundef %19)
  store i32 %20, ptr %12, align 4
  br label %31

21:                                               ; preds = %5, %5
  br label %31

22:                                               ; preds = %5
  %23 = load ptr, ptr %11, align 8
  %24 = getelementptr inbounds %struct.compute_options_size_t, ptr %23, i32 0, i32 1
  %25 = load ptr, ptr %24, align 8
  %26 = load ptr, ptr %6, align 8
  %27 = load i32, ptr %7, align 4
  %28 = load i32, ptr %8, align 4
  %29 = load ptr, ptr %9, align 8
  %30 = call i32 %25(ptr noundef %26, i32 noundef %27, i32 noundef %28, ptr noundef %29)
  store i32 %30, ptr %12, align 4
  br label %31

31:                                               ; preds = %22, %21, %18, %15
  %32 = load i32, ptr %12, align 4
  %33 = icmp ne i32 %32, 0
  br i1 %33, label %34, label %56

34:                                               ; preds = %31
  %35 = load ptr, ptr %11, align 8
  %36 = getelementptr inbounds %struct.compute_options_size_t, ptr %35, i32 0, i32 0
  %37 = load i32, ptr %36, align 8
  %38 = add i32 %37, 4
  store i32 %38, ptr %36, align 8
  %39 = load i32, ptr %12, align 4
  %40 = load ptr, ptr %11, align 8
  %41 = getelementptr inbounds %struct.compute_options_size_t, ptr %40, i32 0, i32 0
  %42 = load i32, ptr %41, align 8
  %43 = add i32 %42, %39
  store i32 %43, ptr %41, align 8
  %44 = load i32, ptr %12, align 4
  %45 = and i32 %44, 3
  %46 = icmp ne i32 %45, 0
  br i1 %46, label %47, label %55

47:                                               ; preds = %34
  %48 = load i32, ptr %12, align 4
  %49 = and i32 %48, 3
  %50 = sub i32 4, %49
  %51 = load ptr, ptr %11, align 8
  %52 = getelementptr inbounds %struct.compute_options_size_t, ptr %51, i32 0, i32 0
  %53 = load i32, ptr %52, align 8
  %54 = add i32 %53, %50
  store i32 %54, ptr %52, align 8
  br label %55

55:                                               ; preds = %47, %34
  br label %56

56:                                               ; preds = %55, %31
  ret i32 1
}