; Function Attrs: nounwind uwtable
define internal noundef i32 @compute_block_option_size(ptr noundef %0, i32 noundef %1, i32 noundef %2, ptr noundef %3, ptr noundef captures(none) %4) #0 {
  switch i32 %1, label %22 [
    i32 1, label %6
    i32 2988, label %13
    i32 2989, label %13
    i32 19372, label %.thread
    i32 19373, label %.thread
  ]

6:                                                ; preds = %5
  %.val = load ptr, ptr %3, align 8
  %7 = tail call i64 @strlen(ptr noundef nonnull readonly dereferenceable(1) %.val) #19
  %8 = trunc i64 %7 to i32
  %9 = and i32 %8, 3
  %.not.i = icmp eq i32 %9, 0
  %10 = sub nuw nsw i32 4, %9
  %.0.i = select i1 %.not.i, i32 0, i32 %10
  %11 = and i32 %8, 65535
  %12 = add nuw nsw i32 %.0.i, %11
  br label %26

13:                                               ; preds = %5, %5
  %14 = load i32, ptr %3, align 8
  %cond.i = icmp eq i32 %14, 10949
  %..i = select i1 %cond.i, i64 16, i64 8
  %.15.i = select i1 %cond.i, i64 8, i64 4
  %15 = getelementptr inbounds nuw i8, ptr %3, i64 %..i
  %16 = load i64, ptr %15, align 8
  %17 = add i64 %.15.i, %16
  %spec.store.select.i = tail call i64 @llvm.umin.i64(i64 %17, i64 65535)
  %18 = and i64 %spec.store.select.i, 3
  %.not.i17 = icmp eq i64 %18, 0
  %19 = sub nuw nsw i64 4, %18
  %.0.i18 = select i1 %.not.i17, i64 0, i64 %19
  %20 = add nuw nsw i64 %.0.i18, %spec.store.select.i
  %21 = trunc nuw nsw i64 %20 to i32
  br label %26

22:                                               ; preds = %5
  %23 = getelementptr inbounds nuw i8, ptr %4, i64 8
  %24 = load ptr, ptr %23, align 8
  %25 = tail call i32 %24(ptr noundef %0, i32 noundef %1, i32 noundef %2, ptr noundef %3) #16
  br label %26

26:                                               ; preds = %22, %13, %6
  %.0 = phi i32 [ %25, %22 ], [ %21, %13 ], [ %12, %6 ]
  %.not = icmp eq i32 %.0, 0
  br i1 %.not, label %.thread, label %27

27:                                               ; preds = %26
  %28 = load i32, ptr %4, align 8
  %29 = add i32 %.0, 4
  %30 = add i32 %29, %28
  store i32 %30, ptr %4, align 8
  %31 = and i32 %.0, 3
  %.not16 = icmp eq i32 %31, 0
  br i1 %.not16, label %.thread, label %32

32:                                               ; preds = %27
  %reass.sub21 = sub i32 %30, %31
  %33 = add i32 %reass.sub21, 4
  store i32 %33, ptr %4, align 8
  br label %.thread

.thread:                                          ; preds = %5, %5, %27, %32, %26
  ret i32 1
}